target datalayout = "e-m:e-p270:32:32-p271:32:32-p272:64:64-i64:64-i128:128-f80:128-n8:16:32:64-S128"
target triple = "x86_64-unknown-linux-gnu"

%"class.Assimp::CalcTangentsProcess" = type { %"class.Assimp::BaseProcess", float, i32 }
%"class.Assimp::BaseProcess" = type { ptr, ptr, ptr }

; Function Attrs: mustprogress nounwind uwtable
define hidden void @_ZN6Assimp19CalcTangentsProcessC2Ev(ptr noundef nonnull align 8 dereferenceable(32) %this) unnamed_addr #0 align 2 {
entry:
  %this.addr = alloca ptr, align 8
  store ptr %this, ptr %this.addr, align 8
  %this1 = load ptr, ptr %this.addr, align 8
  call void @_ZN6Assimp11BaseProcessC2Ev(ptr noundef nonnull align 8 dereferenceable(24) %this1) #15
  store ptr getelementptr inbounds ({ [8 x ptr] }, ptr @_ZTVN6Assimp19CalcTangentsProcessE, i32 0, i32 0, i32 2), ptr %this1, align 8
  %configMaxAngle = getelementptr inbounds %"class.Assimp::CalcTangentsProcess", ptr %this1, i32 0, i32 1
  store float 0x3FE921FB60000000, ptr %configMaxAngle, align 8
  %configSourceUV = getelementptr inbounds %"class.Assimp::CalcTangentsProcess", ptr %this1, i32 0, i32 2
  store i32 0, ptr %configSourceUV, align 4
  ret void
}